; Function Attrs: mustprogress nofree norecurse nosync nounwind willreturn memory(read, argmem: readwrite, inaccessiblemem: none) uwtable
define internal ptr @iterate_ref_map(ptr noundef captures(none) %0) #8 {
  %2 = load ptr, ptr %0, align 8, !tbaa !22
  %.not = icmp eq ptr %2, null
  br i1 %.not, label %6, label %3

3:                                                ; preds = %1
  %4 = load ptr, ptr %2, align 8, !tbaa !22
  store ptr %4, ptr %0, align 8, !tbaa !22
  %5 = getelementptr inbounds nuw i8, ptr %2, i64 8
  br label %6

6:                                                ; preds = %1, %3
  %.0 = phi ptr [ %5, %3 ], [ null, %1 ]
  ret ptr %.0
}